; Function Attrs: mustprogress uwtable
define void @_ZN6icu_7713DecimalFormat30setDecimalPatternMatchRequiredEa(ptr noundef nonnull align 8 dereferenceable(72) %0, i8 noundef signext %1) unnamed_addr #1 align 2 {
  %3 = alloca i32, align 4
  %4 = getelementptr inbounds nuw i8, ptr %0, i64 64
  %5 = load ptr, ptr %4, align 8, !tbaa !25
  %6 = icmp eq ptr %5, null
  br i1 %6, label %14, label %7

7:                                                ; preds = %2
  %8 = getelementptr inbounds nuw i8, ptr %5, i64 72
  %9 = load i8, ptr %8, align 8, !tbaa !188, !range !45, !noundef !49
  %10 = icmp eq i8 %1, %9
  br i1 %10, label %14, label %11

11:                                               ; preds = %7
  %12 = icmp ne i8 %1, 0
  %13 = zext i1 %12 to i8
  store i8 %13, ptr %8, align 8, !tbaa !188
  call void @llvm.lifetime.start.p0(i64 4, ptr nonnull %3) #19
  store i32 0, ptr %3, align 4, !tbaa !13
  call void @_ZN6icu_7713DecimalFormat5touchER10UErrorCode(ptr noundef nonnull align 8 dereferenceable(72) %0, ptr noundef nonnull align 4 dereferenceable(4) %3)
  call void @llvm.lifetime.end.p0(i64 4, ptr nonnull %3) #19
  br label %14

14:                                               ; preds = %7, %2, %11
  ret void
}